; Function Attrs: mustprogress nounwind uwtable
define noundef nonnull align 8 dereferenceable(232) ptr @_ZN6icu_775Edits9moveArrayERS0_(ptr noundef nonnull returned align 8 dereferenceable(232) %0, ptr noundef nonnull align 8 dereferenceable(232) %1) local_unnamed_addr #0 align 2 personality ptr @__gxx_personality_v0 {
  %3 = getelementptr inbounds nuw i8, ptr %0, i64 24
  %4 = load i32, ptr %3, align 8, !tbaa !18
  %5 = icmp slt i32 %4, 1
  br i1 %5, label %10, label %6

6:                                                ; preds = %2
  %7 = getelementptr inbounds nuw i8, ptr %0, i64 20
  store i32 0, ptr %7, align 4, !tbaa !19
  %8 = getelementptr inbounds nuw i8, ptr %0, i64 16
  store i32 0, ptr %8, align 8, !tbaa !20
  %9 = getelementptr inbounds nuw i8, ptr %0, i64 12
  store i32 0, ptr %9, align 4, !tbaa !21
  br label %34

10:                                               ; preds = %2
  %11 = load ptr, ptr %0, align 8, !tbaa !15
  %12 = getelementptr inbounds nuw i8, ptr %0, i64 28
  %.not.i = icmp eq ptr %11, %12
  br i1 %.not.i, label %_ZN6icu_775Edits12releaseArrayEv.exit, label %13

13:                                               ; preds = %10
  invoke void @uprv_free_77(ptr noundef %11)
          to label %_ZN6icu_775Edits12releaseArrayEv.exit unwind label %14

14:                                               ; preds = %13
  %15 = landingpad { ptr, i32 }
          catch ptr null
  %16 = extractvalue { ptr, i32 } %15, 0
  tail call void @__clang_call_terminate(ptr %16) #18
  unreachable

_ZN6icu_775Edits12releaseArrayEv.exit:            ; preds = %10, %13
  %17 = getelementptr inbounds nuw i8, ptr %0, i64 12
  %18 = load i32, ptr %17, align 4, !tbaa !21
  %19 = icmp sgt i32 %18, 100
  br i1 %19, label %20, label %27

20:                                               ; preds = %_ZN6icu_775Edits12releaseArrayEv.exit
  %21 = load ptr, ptr %1, align 8, !tbaa !15
  store ptr %21, ptr %0, align 8, !tbaa !15
  %22 = getelementptr inbounds nuw i8, ptr %1, i64 8
  %23 = load i32, ptr %22, align 8, !tbaa !22
  %24 = getelementptr inbounds nuw i8, ptr %0, i64 8
  store i32 %23, ptr %24, align 8, !tbaa !22
  %25 = getelementptr inbounds nuw i8, ptr %1, i64 28
  store ptr %25, ptr %1, align 8, !tbaa !15
  store i32 100, ptr %22, align 8, !tbaa !22
  %26 = getelementptr inbounds nuw i8, ptr %1, i64 12
  tail call void @llvm.memset.p0.i64(ptr noundef nonnull align 4 dereferenceable(16) %26, i8 0, i64 16, i1 false)
  br label %34

27:                                               ; preds = %_ZN6icu_775Edits12releaseArrayEv.exit
  store ptr %12, ptr %0, align 8, !tbaa !15
  %28 = getelementptr inbounds nuw i8, ptr %0, i64 8
  store i32 100, ptr %28, align 8, !tbaa !22
  %29 = icmp sgt i32 %18, 0
  br i1 %29, label %30, label %34

30:                                               ; preds = %27
  %31 = load ptr, ptr %1, align 8, !tbaa !15
  %32 = shl nuw nsw i32 %18, 1
  %33 = zext nneg i32 %32 to i64
  tail call void @llvm.memcpy.p0.p0.i64(ptr nonnull align 4 %12, ptr align 2 %31, i64 %33, i1 false)
  br label %34

34:                                               ; preds = %27, %30, %20, %6
  ret ptr %0
}